; Function Attrs: null_pointer_is_valid sspstrong uwtable
define hidden ptr @gssapi_lookup_oid_str(ptr noundef %0) local_unnamed_addr #0 {
  %.not = icmp eq ptr %0, null
  br i1 %.not, label %5, label %2

2:                                                ; preds = %1
  %3 = load ptr, ptr @gssapi_oids, align 8
  %4 = tail call ptr @g_hash_table_lookup(ptr noundef %3, ptr noundef nonnull %0)
  br label %5

5:                                                ; preds = %1, %2
  %.0 = phi ptr [ %4, %2 ], [ null, %1 ]
  ret ptr %.0
}